; Function Attrs: mustprogress nounwind uwtable
define dso_local void @_ZN4llvm17PseudoSourceValueC2EjRKNS_13TargetMachineE(ptr nocapture noundef nonnull writeonly align 8 dereferenceable(16) %0, i32 noundef %1, ptr noundef nonnull align 8 dereferenceable(1232) %2) unnamed_addr #0 align 2 {
  store ptr getelementptr inbounds inrange(-16, 48) (i8, ptr @_ZTVN4llvm17PseudoSourceValueE, i64 16), ptr %0, align 8
  %4 = getelementptr inbounds nuw i8, ptr %0, i64 8
  store i32 %1, ptr %4, align 8
  %5 = load ptr, ptr %2, align 8
  %6 = getelementptr inbounds i8, ptr %5, i64 152
  %7 = load ptr, ptr %6, align 8
  %8 = tail call noundef i32 %7(ptr noundef nonnull align 8 dereferenceable(1232) %2, i32 noundef %1) #16
  %9 = getelementptr inbounds nuw i8, ptr %0, i64 12
  store i32 %8, ptr %9, align 4
  ret void
}